
/home/chayso/code/RISC-V-CPU/riscv/testspace/test.om:     file format elf32-littleriscv


Disassembly of section .rom:

00000000 <.rom>:
   0:	00020137          	lui	sp,0x20
   4:	648010ef          	jal	164c <main>
   8:	0ff00513          	li	a0,255
   c:	000306b7          	lui	a3,0x30
  10:	00a68223          	sb	a0,4(a3) # 30004 <__heap_start+0x2e004>
  14:	ff9ff06f          	j	c <outl-0xff4>

Disassembly of section .text:

00001000 <outl>:
    1000:	fd010113          	add	sp,sp,-48 # 1ffd0 <__heap_start+0x1dfd0>
    1004:	02812423          	sw	s0,40(sp)
    1008:	01612823          	sw	s6,16(sp)
    100c:	02112623          	sw	ra,44(sp)
    1010:	02912223          	sw	s1,36(sp)
    1014:	03212023          	sw	s2,32(sp)
    1018:	01312e23          	sw	s3,28(sp)
    101c:	01412c23          	sw	s4,24(sp)
    1020:	01512a23          	sw	s5,20(sp)
    1024:	00050413          	mv	s0,a0
    1028:	00000b13          	li	s6,0
    102c:	00055663          	bgez	a0,1038 <outl+0x38>
    1030:	40a00433          	neg	s0,a0
    1034:	00100b13          	li	s6,1
    1038:	00000913          	li	s2,0
    103c:	00410993          	add	s3,sp,4
    1040:	00900a93          	li	s5,9
    1044:	00a00593          	li	a1,10
    1048:	00040513          	mv	a0,s0
    104c:	5d0000ef          	jal	161c <__modsi3>
    1050:	00090493          	mv	s1,s2
    1054:	00190913          	add	s2,s2,1
    1058:	03050793          	add	a5,a0,48
    105c:	01298a33          	add	s4,s3,s2
    1060:	00040513          	mv	a0,s0
    1064:	fefa0fa3          	sb	a5,-1(s4)
    1068:	00a00593          	li	a1,10
    106c:	00040a13          	mv	s4,s0
    1070:	528000ef          	jal	1598 <__divsi3>
    1074:	00050413          	mv	s0,a0
    1078:	fd4ac6e3          	blt	s5,s4,1044 <outl+0x44>
    107c:	000b0c63          	beqz	s6,1094 <outl+0x94>
    1080:	01090793          	add	a5,s2,16
    1084:	002787b3          	add	a5,a5,sp
    1088:	02d00713          	li	a4,45
    108c:	fee78a23          	sb	a4,-12(a5)
    1090:	00090493          	mv	s1,s2
    1094:	009987b3          	add	a5,s3,s1
    1098:	00030637          	lui	a2,0x30
    109c:	0007c683          	lbu	a3,0(a5)
    10a0:	00078713          	mv	a4,a5
    10a4:	fff78793          	add	a5,a5,-1
    10a8:	00d60023          	sb	a3,0(a2) # 30000 <__heap_start+0x2e000>
    10ac:	fee998e3          	bne	s3,a4,109c <outl+0x9c>
    10b0:	02c12083          	lw	ra,44(sp)
    10b4:	02812403          	lw	s0,40(sp)
    10b8:	02412483          	lw	s1,36(sp)
    10bc:	02012903          	lw	s2,32(sp)
    10c0:	01c12983          	lw	s3,28(sp)
    10c4:	01812a03          	lw	s4,24(sp)
    10c8:	01412a83          	lw	s5,20(sp)
    10cc:	01012b03          	lw	s6,16(sp)
    10d0:	03010113          	add	sp,sp,48
    10d4:	00008067          	ret

000010d8 <random>:
    10d8:	fe010113          	add	sp,sp,-32
    10dc:	000027b7          	lui	a5,0x2
    10e0:	00912a23          	sw	s1,20(sp)
    10e4:	000024b7          	lui	s1,0x2
    10e8:	01212823          	sw	s2,16(sp)
    10ec:	01312623          	sw	s3,12(sp)
    10f0:	c704a903          	lw	s2,-912(s1) # 1c70 <seed>
    10f4:	e107a983          	lw	s3,-496(a5) # 1e10 <Q>
    10f8:	00112e23          	sw	ra,28(sp)
    10fc:	00090513          	mv	a0,s2
    1100:	00098593          	mv	a1,s3
    1104:	00812c23          	sw	s0,24(sp)
    1108:	514000ef          	jal	161c <__modsi3>
    110c:	000027b7          	lui	a5,0x2
    1110:	c787a583          	lw	a1,-904(a5) # 1c78 <A>
    1114:	460000ef          	jal	1574 <__mulsi3>
    1118:	00050413          	mv	s0,a0
    111c:	00098593          	mv	a1,s3
    1120:	00090513          	mv	a0,s2
    1124:	474000ef          	jal	1598 <__divsi3>
    1128:	000027b7          	lui	a5,0x2
    112c:	e0c7a583          	lw	a1,-500(a5) # 1e0c <R>
    1130:	444000ef          	jal	1574 <__mulsi3>
    1134:	40a40533          	sub	a0,s0,a0
    1138:	00055863          	bgez	a0,1148 <random+0x70>
    113c:	000027b7          	lui	a5,0x2
    1140:	c747a783          	lw	a5,-908(a5) # 1c74 <M>
    1144:	00f50533          	add	a0,a0,a5
    1148:	01c12083          	lw	ra,28(sp)
    114c:	01812403          	lw	s0,24(sp)
    1150:	c6a4a823          	sw	a0,-912(s1)
    1154:	01012903          	lw	s2,16(sp)
    1158:	01412483          	lw	s1,20(sp)
    115c:	00c12983          	lw	s3,12(sp)
    1160:	02010113          	add	sp,sp,32
    1164:	00008067          	ret

00001168 <initialize>:
    1168:	000027b7          	lui	a5,0x2
    116c:	c6a7a823          	sw	a0,-912(a5) # 1c70 <seed>
    1170:	00008067          	ret

00001174 <swap>:
    1174:	000027b7          	lui	a5,0x2
    1178:	c7c78793          	add	a5,a5,-900 # 1c7c <a>
    117c:	00259593          	sll	a1,a1,0x2
    1180:	00b785b3          	add	a1,a5,a1
    1184:	00251513          	sll	a0,a0,0x2
    1188:	0005a683          	lw	a3,0(a1)
    118c:	00a787b3          	add	a5,a5,a0
    1190:	0007a703          	lw	a4,0(a5)
    1194:	00d7a023          	sw	a3,0(a5)
    1198:	00e5a023          	sw	a4,0(a1)
    119c:	00008067          	ret

000011a0 <pd>:
    11a0:	fe010113          	add	sp,sp,-32
    11a4:	01412423          	sw	s4,8(sp)
    11a8:	00002a37          	lui	s4,0x2
    11ac:	00812c23          	sw	s0,24(sp)
    11b0:	e18a2403          	lw	s0,-488(s4) # 1e18 <h>
    11b4:	00112e23          	sw	ra,28(sp)
    11b8:	08854263          	blt	a0,s0,123c <pd+0x9c>
    11bc:	00912a23          	sw	s1,20(sp)
    11c0:	01212823          	sw	s2,16(sp)
    11c4:	01312623          	sw	s3,12(sp)
    11c8:	00050493          	mv	s1,a0
    11cc:	00000913          	li	s2,0
    11d0:	0100006f          	j	11e0 <pd+0x40>
    11d4:	00100913          	li	s2,1
    11d8:	0484ca63          	blt	s1,s0,122c <pd+0x8c>
    11dc:	00040993          	mv	s3,s0
    11e0:	00040593          	mv	a1,s0
    11e4:	00140413          	add	s0,s0,1
    11e8:	00040513          	mv	a0,s0
    11ec:	388000ef          	jal	1574 <__mulsi3>
    11f0:	01f55793          	srl	a5,a0,0x1f
    11f4:	00a787b3          	add	a5,a5,a0
    11f8:	4017d793          	sra	a5,a5,0x1
    11fc:	fc979ce3          	bne	a5,s1,11d4 <pd+0x34>
    1200:	00090463          	beqz	s2,1208 <pd+0x68>
    1204:	e13a2c23          	sw	s3,-488(s4)
    1208:	01c12083          	lw	ra,28(sp)
    120c:	01812403          	lw	s0,24(sp)
    1210:	01412483          	lw	s1,20(sp)
    1214:	01012903          	lw	s2,16(sp)
    1218:	00c12983          	lw	s3,12(sp)
    121c:	00812a03          	lw	s4,8(sp)
    1220:	00100513          	li	a0,1
    1224:	02010113          	add	sp,sp,32
    1228:	00008067          	ret
    122c:	01412483          	lw	s1,20(sp)
    1230:	01012903          	lw	s2,16(sp)
    1234:	00c12983          	lw	s3,12(sp)
    1238:	e08a2c23          	sw	s0,-488(s4)
    123c:	01c12083          	lw	ra,28(sp)
    1240:	01812403          	lw	s0,24(sp)
    1244:	00812a03          	lw	s4,8(sp)
    1248:	00000513          	li	a0,0
    124c:	02010113          	add	sp,sp,32
    1250:	00008067          	ret

00001254 <show>:
    1254:	fb010113          	add	sp,sp,-80
    1258:	03712623          	sw	s7,44(sp)
    125c:	00002bb7          	lui	s7,0x2
    1260:	e14ba783          	lw	a5,-492(s7) # 1e14 <now>
    1264:	04112623          	sw	ra,76(sp)
    1268:	10f05263          	blez	a5,136c <show+0x118>
    126c:	03512a23          	sw	s5,52(sp)
    1270:	00002ab7          	lui	s5,0x2
    1274:	05212023          	sw	s2,64(sp)
    1278:	03312e23          	sw	s3,60(sp)
    127c:	03412c23          	sw	s4,56(sp)
    1280:	03612823          	sw	s6,48(sp)
    1284:	03812423          	sw	s8,40(sp)
    1288:	04812423          	sw	s0,72(sp)
    128c:	04912223          	sw	s1,68(sp)
    1290:	03912223          	sw	s9,36(sp)
    1294:	03a12023          	sw	s10,32(sp)
    1298:	01b12e23          	sw	s11,28(sp)
    129c:	c7ca8a93          	add	s5,s5,-900 # 1c7c <a>
    12a0:	00000b13          	li	s6,0
    12a4:	00410913          	add	s2,sp,4
    12a8:	00900a13          	li	s4,9
    12ac:	000309b7          	lui	s3,0x30
    12b0:	02000c13          	li	s8,32
    12b4:	000aa403          	lw	s0,0(s5)
    12b8:	00000d13          	li	s10,0
    12bc:	0c044663          	bltz	s0,1388 <show+0x134>
    12c0:	00000d93          	li	s11,0
    12c4:	00a00593          	li	a1,10
    12c8:	00040513          	mv	a0,s0
    12cc:	350000ef          	jal	161c <__modsi3>
    12d0:	000d8493          	mv	s1,s11
    12d4:	001d8d93          	add	s11,s11,1
    12d8:	03050793          	add	a5,a0,48
    12dc:	01b90cb3          	add	s9,s2,s11
    12e0:	00040513          	mv	a0,s0
    12e4:	fefc8fa3          	sb	a5,-1(s9)
    12e8:	00a00593          	li	a1,10
    12ec:	00040c93          	mv	s9,s0
    12f0:	2a8000ef          	jal	1598 <__divsi3>
    12f4:	00050413          	mv	s0,a0
    12f8:	fd9a46e3          	blt	s4,s9,12c4 <show+0x70>
    12fc:	000d0c63          	beqz	s10,1314 <show+0xc0>
    1300:	010d8793          	add	a5,s11,16
    1304:	002787b3          	add	a5,a5,sp
    1308:	02d00713          	li	a4,45
    130c:	fee78a23          	sb	a4,-12(a5)
    1310:	000d8493          	mv	s1,s11
    1314:	009907b3          	add	a5,s2,s1
    1318:	0007c683          	lbu	a3,0(a5)
    131c:	00078713          	mv	a4,a5
    1320:	fff78793          	add	a5,a5,-1
    1324:	00d98023          	sb	a3,0(s3) # 30000 <__heap_start+0x2e000>
    1328:	fee918e3          	bne	s2,a4,1318 <show+0xc4>
    132c:	01898023          	sb	s8,0(s3)
    1330:	e14ba783          	lw	a5,-492(s7)
    1334:	001b0b13          	add	s6,s6,1
    1338:	004a8a93          	add	s5,s5,4
    133c:	f6fb4ce3          	blt	s6,a5,12b4 <show+0x60>
    1340:	04812403          	lw	s0,72(sp)
    1344:	04412483          	lw	s1,68(sp)
    1348:	04012903          	lw	s2,64(sp)
    134c:	03c12983          	lw	s3,60(sp)
    1350:	03812a03          	lw	s4,56(sp)
    1354:	03412a83          	lw	s5,52(sp)
    1358:	03012b03          	lw	s6,48(sp)
    135c:	02812c03          	lw	s8,40(sp)
    1360:	02412c83          	lw	s9,36(sp)
    1364:	02012d03          	lw	s10,32(sp)
    1368:	01c12d83          	lw	s11,28(sp)
    136c:	000307b7          	lui	a5,0x30
    1370:	00a00713          	li	a4,10
    1374:	00e78023          	sb	a4,0(a5) # 30000 <__heap_start+0x2e000>
    1378:	04c12083          	lw	ra,76(sp)
    137c:	02c12b83          	lw	s7,44(sp)
    1380:	05010113          	add	sp,sp,80
    1384:	00008067          	ret
    1388:	40800433          	neg	s0,s0
    138c:	00100d13          	li	s10,1
    1390:	f31ff06f          	j	12c0 <show+0x6c>

00001394 <win>:
    1394:	e6010113          	add	sp,sp,-416
    1398:	000027b7          	lui	a5,0x2
    139c:	18912a23          	sw	s1,404(sp)
    13a0:	e147a483          	lw	s1,-492(a5) # 1e14 <now>
    13a4:	000027b7          	lui	a5,0x2
    13a8:	e187a783          	lw	a5,-488(a5) # 1e18 <h>
    13ac:	18112e23          	sw	ra,412(sp)
    13b0:	08f49c63          	bne	s1,a5,1448 <win+0xb4>
    13b4:	00010813          	mv	a6,sp
    13b8:	06905a63          	blez	s1,142c <win+0x98>
    13bc:	00010813          	mv	a6,sp
    13c0:	18812c23          	sw	s0,408(sp)
    13c4:	000025b7          	lui	a1,0x2
    13c8:	00249413          	sll	s0,s1,0x2
    13cc:	00080513          	mv	a0,a6
    13d0:	00040613          	mv	a2,s0
    13d4:	c7c58593          	add	a1,a1,-900 # 1c7c <a>
    13d8:	678000ef          	jal	1a50 <memcpy>
    13dc:	00100793          	li	a5,1
    13e0:	00050813          	mv	a6,a0
    13e4:	04f48263          	beq	s1,a5,1428 <win+0x94>
    13e8:	00850633          	add	a2,a0,s0
    13ec:	00410593          	add	a1,sp,4
    13f0:	fff48893          	add	a7,s1,-1
    13f4:	00000513          	li	a0,0
    13f8:	00150513          	add	a0,a0,1
    13fc:	02955263          	bge	a0,s1,1420 <win+0x8c>
    1400:	00058793          	mv	a5,a1
    1404:	0007a683          	lw	a3,0(a5)
    1408:	ffc5a703          	lw	a4,-4(a1)
    140c:	00e6d663          	bge	a3,a4,1418 <win+0x84>
    1410:	fed5ae23          	sw	a3,-4(a1)
    1414:	00e7a023          	sw	a4,0(a5)
    1418:	00478793          	add	a5,a5,4
    141c:	fec794e3          	bne	a5,a2,1404 <win+0x70>
    1420:	00458593          	add	a1,a1,4
    1424:	fd151ae3          	bne	a0,a7,13f8 <win+0x64>
    1428:	19812403          	lw	s0,408(sp)
    142c:	00080513          	mv	a0,a6
    1430:	00000793          	li	a5,0
    1434:	0297d463          	bge	a5,s1,145c <win+0xc8>
    1438:	00052703          	lw	a4,0(a0)
    143c:	00178793          	add	a5,a5,1
    1440:	00450513          	add	a0,a0,4
    1444:	fef708e3          	beq	a4,a5,1434 <win+0xa0>
    1448:	19c12083          	lw	ra,412(sp)
    144c:	19412483          	lw	s1,404(sp)
    1450:	00000513          	li	a0,0
    1454:	1a010113          	add	sp,sp,416
    1458:	00008067          	ret
    145c:	19c12083          	lw	ra,412(sp)
    1460:	19412483          	lw	s1,404(sp)
    1464:	00100513          	li	a0,1
    1468:	1a010113          	add	sp,sp,416
    146c:	00008067          	ret

00001470 <merge>:
    1470:	000028b7          	lui	a7,0x2
    1474:	e148a603          	lw	a2,-492(a7) # 1e14 <now>
    1478:	08c05663          	blez	a2,1504 <merge+0x94>
    147c:	000027b7          	lui	a5,0x2
    1480:	c7c78593          	add	a1,a5,-900 # 1c7c <a>
    1484:	00458513          	add	a0,a1,4
    1488:	00000813          	li	a6,0
    148c:	ffc52783          	lw	a5,-4(a0)
    1490:	00180813          	add	a6,a6,1
    1494:	02078a63          	beqz	a5,14c8 <merge+0x58>
    1498:	00450513          	add	a0,a0,4
    149c:	fec818e3          	bne	a6,a2,148c <merge+0x1c>
    14a0:	00058793          	mv	a5,a1
    14a4:	00000713          	li	a4,0
    14a8:	00c0006f          	j	14b4 <merge+0x44>
    14ac:	00170713          	add	a4,a4,1
    14b0:	04c70c63          	beq	a4,a2,1508 <merge+0x98>
    14b4:	0007a683          	lw	a3,0(a5)
    14b8:	00478793          	add	a5,a5,4
    14bc:	fe0698e3          	bnez	a3,14ac <merge+0x3c>
    14c0:	e0e8aa23          	sw	a4,-492(a7)
    14c4:	00008067          	ret
    14c8:	fcc858e3          	bge	a6,a2,1498 <merge+0x28>
    14cc:	00050713          	mv	a4,a0
    14d0:	00080793          	mv	a5,a6
    14d4:	00c0006f          	j	14e0 <merge+0x70>
    14d8:	00178793          	add	a5,a5,1
    14dc:	02c78063          	beq	a5,a2,14fc <merge+0x8c>
    14e0:	00072683          	lw	a3,0(a4)
    14e4:	00470713          	add	a4,a4,4
    14e8:	fe0688e3          	beqz	a3,14d8 <merge+0x68>
    14ec:	00279793          	sll	a5,a5,0x2
    14f0:	fed52e23          	sw	a3,-4(a0)
    14f4:	00f587b3          	add	a5,a1,a5
    14f8:	0007a023          	sw	zero,0(a5)
    14fc:	00450513          	add	a0,a0,4
    1500:	f8dff06f          	j	148c <merge+0x1c>
    1504:	00008067          	ret
    1508:	00008067          	ret

0000150c <move>:
    150c:	00002537          	lui	a0,0x2
    1510:	e1452583          	lw	a1,-492(a0) # 1e14 <now>
    1514:	04b05063          	blez	a1,1554 <move+0x48>
    1518:	000027b7          	lui	a5,0x2
    151c:	c7c78613          	add	a2,a5,-900 # 1c7c <a>
    1520:	00259813          	sll	a6,a1,0x2
    1524:	c7c78793          	add	a5,a5,-900
    1528:	010606b3          	add	a3,a2,a6
    152c:	0007a703          	lw	a4,0(a5)
    1530:	00478793          	add	a5,a5,4
    1534:	fff70713          	add	a4,a4,-1
    1538:	fee7ae23          	sw	a4,-4(a5)
    153c:	fed798e3          	bne	a5,a3,152c <move+0x20>
    1540:	01060633          	add	a2,a2,a6
    1544:	00158793          	add	a5,a1,1
    1548:	00b62023          	sw	a1,0(a2)
    154c:	e0f52a23          	sw	a5,-492(a0)
    1550:	00008067          	ret
    1554:	00002637          	lui	a2,0x2
    1558:	c7c60613          	add	a2,a2,-900 # 1c7c <a>
    155c:	00259813          	sll	a6,a1,0x2
    1560:	01060633          	add	a2,a2,a6
    1564:	00158793          	add	a5,a1,1
    1568:	00b62023          	sw	a1,0(a2)
    156c:	e0f52a23          	sw	a5,-492(a0)
    1570:	00008067          	ret

00001574 <__mulsi3>:
    1574:	00050613          	mv	a2,a0
    1578:	00000513          	li	a0,0
    157c:	0015f693          	and	a3,a1,1
    1580:	00068463          	beqz	a3,1588 <__mulsi3+0x14>
    1584:	00c50533          	add	a0,a0,a2
    1588:	0015d593          	srl	a1,a1,0x1
    158c:	00161613          	sll	a2,a2,0x1
    1590:	fe0596e3          	bnez	a1,157c <__mulsi3+0x8>
    1594:	00008067          	ret

00001598 <__divsi3>:
    1598:	06054063          	bltz	a0,15f8 <__umodsi3+0x10>
    159c:	0605c663          	bltz	a1,1608 <__umodsi3+0x20>

000015a0 <__hidden___udivsi3>:
    15a0:	00058613          	mv	a2,a1
    15a4:	00050593          	mv	a1,a0
    15a8:	fff00513          	li	a0,-1
    15ac:	02060c63          	beqz	a2,15e4 <__hidden___udivsi3+0x44>
    15b0:	00100693          	li	a3,1
    15b4:	00b67a63          	bgeu	a2,a1,15c8 <__hidden___udivsi3+0x28>
    15b8:	00c05863          	blez	a2,15c8 <__hidden___udivsi3+0x28>
    15bc:	00161613          	sll	a2,a2,0x1
    15c0:	00169693          	sll	a3,a3,0x1
    15c4:	feb66ae3          	bltu	a2,a1,15b8 <__hidden___udivsi3+0x18>
    15c8:	00000513          	li	a0,0
    15cc:	00c5e663          	bltu	a1,a2,15d8 <__hidden___udivsi3+0x38>
    15d0:	40c585b3          	sub	a1,a1,a2
    15d4:	00d56533          	or	a0,a0,a3
    15d8:	0016d693          	srl	a3,a3,0x1
    15dc:	00165613          	srl	a2,a2,0x1
    15e0:	fe0696e3          	bnez	a3,15cc <__hidden___udivsi3+0x2c>
    15e4:	00008067          	ret

000015e8 <__umodsi3>:
    15e8:	00008293          	mv	t0,ra
    15ec:	fb5ff0ef          	jal	15a0 <__hidden___udivsi3>
    15f0:	00058513          	mv	a0,a1
    15f4:	00028067          	jr	t0
    15f8:	40a00533          	neg	a0,a0
    15fc:	00b04863          	bgtz	a1,160c <__umodsi3+0x24>
    1600:	40b005b3          	neg	a1,a1
    1604:	f9dff06f          	j	15a0 <__hidden___udivsi3>
    1608:	40b005b3          	neg	a1,a1
    160c:	00008293          	mv	t0,ra
    1610:	f91ff0ef          	jal	15a0 <__hidden___udivsi3>
    1614:	40a00533          	neg	a0,a0
    1618:	00028067          	jr	t0

0000161c <__modsi3>:
    161c:	00008293          	mv	t0,ra
    1620:	0005ca63          	bltz	a1,1634 <__modsi3+0x18>
    1624:	00054c63          	bltz	a0,163c <__modsi3+0x20>
    1628:	f79ff0ef          	jal	15a0 <__hidden___udivsi3>
    162c:	00058513          	mv	a0,a1
    1630:	00028067          	jr	t0
    1634:	40b005b3          	neg	a1,a1
    1638:	fe0558e3          	bgez	a0,1628 <__modsi3+0xc>
    163c:	40a00533          	neg	a0,a0
    1640:	f61ff0ef          	jal	15a0 <__hidden___udivsi3>
    1644:	40b00533          	neg	a0,a1
    1648:	00028067          	jr	t0

Disassembly of section .text.startup:

0000164c <main>:
    164c:	fa010113          	add	sp,sp,-96
    1650:	05212823          	sw	s2,80(sp)
    1654:	05412423          	sw	s4,72(sp)
    1658:	00002937          	lui	s2,0x2
    165c:	00002a37          	lui	s4,0x2
    1660:	04812c23          	sw	s0,88(sp)
    1664:	04912a23          	sw	s1,84(sp)
    1668:	c7492403          	lw	s0,-908(s2) # 1c74 <M>
    166c:	c78a2483          	lw	s1,-904(s4) # 1c78 <A>
    1670:	0d200793          	li	a5,210
    1674:	03912a23          	sw	s9,52(sp)
    1678:	00048593          	mv	a1,s1
    167c:	03a12823          	sw	s10,48(sp)
    1680:	00040513          	mv	a0,s0
    1684:	00002d37          	lui	s10,0x2
    1688:	00002cb7          	lui	s9,0x2
    168c:	04112e23          	sw	ra,92(sp)
    1690:	05312623          	sw	s3,76(sp)
    1694:	05512223          	sw	s5,68(sp)
    1698:	05612023          	sw	s6,64(sp)
    169c:	03712e23          	sw	s7,60(sp)
    16a0:	e0fd2e23          	sw	a5,-484(s10) # 1e1c <n>
    16a4:	03812c23          	sw	s8,56(sp)
    16a8:	e00cac23          	sw	zero,-488(s9) # 1e18 <h>
    16ac:	eedff0ef          	jal	1598 <__divsi3>
    16b0:	00050793          	mv	a5,a0
    16b4:	00048593          	mv	a1,s1
    16b8:	00040513          	mv	a0,s0
    16bc:	00002b37          	lui	s6,0x2
    16c0:	e0fb2823          	sw	a5,-496(s6) # 1e10 <Q>
    16c4:	000029b7          	lui	s3,0x2
    16c8:	f55ff0ef          	jal	161c <__modsi3>
    16cc:	e0a9a623          	sw	a0,-500(s3) # 1e0c <R>
    16d0:	00000493          	li	s1,0
    16d4:	00000413          	li	s0,0
    16d8:	00100a93          	li	s5,1
    16dc:	0d300b93          	li	s7,211
    16e0:	0100006f          	j	16f0 <main+0xa4>
    16e4:	00100493          	li	s1,1
    16e8:	33740463          	beq	s0,s7,1a10 <main+0x3c4>
    16ec:	00040c13          	mv	s8,s0
    16f0:	00040593          	mv	a1,s0
    16f4:	00140413          	add	s0,s0,1
    16f8:	00040513          	mv	a0,s0
    16fc:	e79ff0ef          	jal	1574 <__mulsi3>
    1700:	e5c50513          	add	a0,a0,-420
    1704:	feaae0e3          	bltu	s5,a0,16e4 <main+0x98>
    1708:	03b12623          	sw	s11,44(sp)
    170c:	00048463          	beqz	s1,1714 <main+0xc8>
    1710:	e18cac23          	sw	s8,-488(s9)
    1714:	000027b7          	lui	a5,0x2
    1718:	c4478793          	add	a5,a5,-956 # 1c44 <memcpy+0x1f4>
    171c:	04c00713          	li	a4,76
    1720:	00030437          	lui	s0,0x30
    1724:	00e40023          	sb	a4,0(s0) # 30000 <__heap_start+0x2e000>
    1728:	0017c703          	lbu	a4,1(a5)
    172c:	00178793          	add	a5,a5,1
    1730:	fe071ae3          	bnez	a4,1724 <main+0xd8>
    1734:	00a00493          	li	s1,10
    1738:	0037c7b7          	lui	a5,0x37c
    173c:	4f278793          	add	a5,a5,1266 # 37c4f2 <__heap_start+0x37a4f2>
    1740:	00940023          	sb	s1,0(s0)
    1744:	00002cb7          	lui	s9,0x2
    1748:	c6fca823          	sw	a5,-912(s9) # 1c70 <seed>
    174c:	98dff0ef          	jal	10d8 <random>
    1750:	00a00593          	li	a1,10
    1754:	ec9ff0ef          	jal	161c <__modsi3>
    1758:	00150513          	add	a0,a0,1
    175c:	00002c37          	lui	s8,0x2
    1760:	e0ac2a23          	sw	a0,-492(s8) # 1e14 <now>
    1764:	89dff0ef          	jal	1000 <outl>
    1768:	00940023          	sb	s1,0(s0)
    176c:	e14c2703          	lw	a4,-492(s8)
    1770:	00002ab7          	lui	s5,0x2
    1774:	fff70793          	add	a5,a4,-1
    1778:	00f12623          	sw	a5,12(sp)
    177c:	2cf05463          	blez	a5,1a44 <main+0x3f8>
    1780:	c7ca8b93          	add	s7,s5,-900 # 1c7c <a>
    1784:	e10b2403          	lw	s0,-496(s6)
    1788:	c78a2a03          	lw	s4,-904(s4)
    178c:	c7492b03          	lw	s6,-908(s2)
    1790:	e0c9a983          	lw	s3,-500(s3)
    1794:	e1cd2903          	lw	s2,-484(s10)
    1798:	c70cad83          	lw	s11,-912(s9)
    179c:	00271713          	sll	a4,a4,0x2
    17a0:	ffcb8c93          	add	s9,s7,-4
    17a4:	c7ca8a93          	add	s5,s5,-900
    17a8:	00ec8cb3          	add	s9,s9,a4
    17ac:	00000493          	li	s1,0
    17b0:	00040593          	mv	a1,s0
    17b4:	000d8513          	mv	a0,s11
    17b8:	e65ff0ef          	jal	161c <__modsi3>
    17bc:	000a0593          	mv	a1,s4
    17c0:	db5ff0ef          	jal	1574 <__mulsi3>
    17c4:	00050713          	mv	a4,a0
    17c8:	00040593          	mv	a1,s0
    17cc:	000d8513          	mv	a0,s11
    17d0:	00070d93          	mv	s11,a4
    17d4:	dc5ff0ef          	jal	1598 <__divsi3>
    17d8:	00098593          	mv	a1,s3
    17dc:	d99ff0ef          	jal	1574 <__mulsi3>
    17e0:	40ad8db3          	sub	s11,s11,a0
    17e4:	220dc263          	bltz	s11,1a08 <main+0x3bc>
    17e8:	00a00593          	li	a1,10
    17ec:	000d8513          	mv	a0,s11
    17f0:	e2dff0ef          	jal	161c <__modsi3>
    17f4:	00150513          	add	a0,a0,1
    17f8:	00950733          	add	a4,a0,s1
    17fc:	04e95c63          	bge	s2,a4,1854 <main+0x208>
    1800:	00040593          	mv	a1,s0
    1804:	000d8513          	mv	a0,s11
    1808:	e15ff0ef          	jal	161c <__modsi3>
    180c:	000a0593          	mv	a1,s4
    1810:	d65ff0ef          	jal	1574 <__mulsi3>
    1814:	00050713          	mv	a4,a0
    1818:	00040593          	mv	a1,s0
    181c:	000d8513          	mv	a0,s11
    1820:	00070d93          	mv	s11,a4
    1824:	d75ff0ef          	jal	1598 <__divsi3>
    1828:	00098593          	mv	a1,s3
    182c:	d49ff0ef          	jal	1574 <__mulsi3>
    1830:	40ad8db3          	sub	s11,s11,a0
    1834:	00a00593          	li	a1,10
    1838:	fa0ddae3          	bgez	s11,17ec <main+0x1a0>
    183c:	016d8db3          	add	s11,s11,s6
    1840:	000d8513          	mv	a0,s11
    1844:	dd9ff0ef          	jal	161c <__modsi3>
    1848:	00150513          	add	a0,a0,1
    184c:	00950733          	add	a4,a0,s1
    1850:	fae948e3          	blt	s2,a4,1800 <main+0x1b4>
    1854:	00aaa023          	sw	a0,0(s5)
    1858:	004a8a93          	add	s5,s5,4
    185c:	00070493          	mv	s1,a4
    1860:	f59a98e3          	bne	s5,s9,17b0 <main+0x164>
    1864:	000027b7          	lui	a5,0x2
    1868:	c7b7a823          	sw	s11,-912(a5) # 1c70 <seed>
    186c:	00c12783          	lw	a5,12(sp)
    1870:	e1cd2703          	lw	a4,-484(s10)
    1874:	00000a93          	li	s5,0
    1878:	00279793          	sll	a5,a5,0x2
    187c:	00fb87b3          	add	a5,s7,a5
    1880:	40970733          	sub	a4,a4,s1
    1884:	00e7a023          	sw	a4,0(a5)
    1888:	9cdff0ef          	jal	1254 <show>
    188c:	be5ff0ef          	jal	1470 <merge>
    1890:	b05ff0ef          	jal	1394 <win>
    1894:	00002cb7          	lui	s9,0x2
    1898:	000309b7          	lui	s3,0x30
    189c:	01410913          	add	s2,sp,20
    18a0:	00900a13          	li	s4,9
    18a4:	03a00b13          	li	s6,58
    18a8:	00050d13          	mv	s10,a0
    18ac:	0c051663          	bnez	a0,1978 <main+0x32c>
    18b0:	c54c8713          	add	a4,s9,-940 # 1c54 <memcpy+0x204>
    18b4:	07300793          	li	a5,115
    18b8:	00f98023          	sb	a5,0(s3) # 30000 <__heap_start+0x2e000>
    18bc:	00174783          	lbu	a5,1(a4)
    18c0:	00170713          	add	a4,a4,1
    18c4:	fe079ae3          	bnez	a5,18b8 <main+0x26c>
    18c8:	001a8a93          	add	s5,s5,1
    18cc:	000a8413          	mv	s0,s5
    18d0:	00a00593          	li	a1,10
    18d4:	00040513          	mv	a0,s0
    18d8:	d45ff0ef          	jal	161c <__modsi3>
    18dc:	000d0493          	mv	s1,s10
    18e0:	001d0d13          	add	s10,s10,1
    18e4:	03050793          	add	a5,a0,48
    18e8:	01a90db3          	add	s11,s2,s10
    18ec:	00040513          	mv	a0,s0
    18f0:	fefd8fa3          	sb	a5,-1(s11)
    18f4:	00a00593          	li	a1,10
    18f8:	00040d93          	mv	s11,s0
    18fc:	c9dff0ef          	jal	1598 <__divsi3>
    1900:	00050413          	mv	s0,a0
    1904:	fdba46e3          	blt	s4,s11,18d0 <main+0x284>
    1908:	009907b3          	add	a5,s2,s1
    190c:	0007c683          	lbu	a3,0(a5)
    1910:	00078713          	mv	a4,a5
    1914:	fff78793          	add	a5,a5,-1
    1918:	00d98023          	sb	a3,0(s3)
    191c:	fee918e3          	bne	s2,a4,190c <main+0x2c0>
    1920:	01698023          	sb	s6,0(s3)
    1924:	00a00793          	li	a5,10
    1928:	00f98023          	sb	a5,0(s3)
    192c:	e14c2603          	lw	a2,-492(s8)
    1930:	000b8793          	mv	a5,s7
    1934:	00261593          	sll	a1,a2,0x2
    1938:	017586b3          	add	a3,a1,s7
    193c:	00c05c63          	blez	a2,1954 <main+0x308>
    1940:	0007a703          	lw	a4,0(a5)
    1944:	00478793          	add	a5,a5,4
    1948:	fff70713          	add	a4,a4,-1
    194c:	fee7ae23          	sw	a4,-4(a5)
    1950:	fed798e3          	bne	a5,a3,1940 <main+0x2f4>
    1954:	00bb85b3          	add	a1,s7,a1
    1958:	00160793          	add	a5,a2,1
    195c:	00c5a023          	sw	a2,0(a1)
    1960:	e0fc2a23          	sw	a5,-492(s8)
    1964:	b0dff0ef          	jal	1470 <merge>
    1968:	8edff0ef          	jal	1254 <show>
    196c:	a29ff0ef          	jal	1394 <win>
    1970:	00050d13          	mv	s10,a0
    1974:	f2050ee3          	beqz	a0,18b0 <main+0x264>
    1978:	000027b7          	lui	a5,0x2
    197c:	c5c78793          	add	a5,a5,-932 # 1c5c <memcpy+0x20c>
    1980:	05400713          	li	a4,84
    1984:	000306b7          	lui	a3,0x30
    1988:	00e68023          	sb	a4,0(a3) # 30000 <__heap_start+0x2e000>
    198c:	0017c703          	lbu	a4,1(a5)
    1990:	00178793          	add	a5,a5,1
    1994:	fe071ae3          	bnez	a4,1988 <main+0x33c>
    1998:	000a8513          	mv	a0,s5
    199c:	e64ff0ef          	jal	1000 <outl>
    19a0:	000027b7          	lui	a5,0x2
    19a4:	c6478793          	add	a5,a5,-924 # 1c64 <memcpy+0x214>
    19a8:	02000713          	li	a4,32
    19ac:	000306b7          	lui	a3,0x30
    19b0:	00e68023          	sb	a4,0(a3) # 30000 <__heap_start+0x2e000>
    19b4:	0017c703          	lbu	a4,1(a5)
    19b8:	00178793          	add	a5,a5,1
    19bc:	fe071ae3          	bnez	a4,19b0 <main+0x364>
    19c0:	00a00793          	li	a5,10
    19c4:	00f68023          	sb	a5,0(a3)
    19c8:	02c12d83          	lw	s11,44(sp)
    19cc:	00000513          	li	a0,0
    19d0:	05c12083          	lw	ra,92(sp)
    19d4:	05812403          	lw	s0,88(sp)
    19d8:	05412483          	lw	s1,84(sp)
    19dc:	05012903          	lw	s2,80(sp)
    19e0:	04c12983          	lw	s3,76(sp)
    19e4:	04812a03          	lw	s4,72(sp)
    19e8:	04412a83          	lw	s5,68(sp)
    19ec:	04012b03          	lw	s6,64(sp)
    19f0:	03c12b83          	lw	s7,60(sp)
    19f4:	03812c03          	lw	s8,56(sp)
    19f8:	03412c83          	lw	s9,52(sp)
    19fc:	03012d03          	lw	s10,48(sp)
    1a00:	06010113          	add	sp,sp,96
    1a04:	00008067          	ret
    1a08:	016d8db3          	add	s11,s11,s6
    1a0c:	dddff06f          	j	17e8 <main+0x19c>
    1a10:	000027b7          	lui	a5,0x2
    1a14:	e08cac23          	sw	s0,-488(s9)
    1a18:	bf478793          	add	a5,a5,-1036 # 1bf4 <memcpy+0x1a4>
    1a1c:	05300713          	li	a4,83
    1a20:	000306b7          	lui	a3,0x30
    1a24:	00e68023          	sb	a4,0(a3) # 30000 <__heap_start+0x2e000>
    1a28:	0017c703          	lbu	a4,1(a5)
    1a2c:	00178793          	add	a5,a5,1
    1a30:	fe071ae3          	bnez	a4,1a24 <main+0x3d8>
    1a34:	00a00793          	li	a5,10
    1a38:	00f68023          	sb	a5,0(a3)
    1a3c:	00100513          	li	a0,1
    1a40:	f91ff06f          	j	19d0 <main+0x384>
    1a44:	00000493          	li	s1,0
    1a48:	c7ca8b93          	add	s7,s5,-900
    1a4c:	e21ff06f          	j	186c <main+0x220>

Disassembly of section .text.memcpy:

00001a50 <memcpy>:
    1a50:	00a5c7b3          	xor	a5,a1,a0
    1a54:	0037f793          	and	a5,a5,3
    1a58:	00c508b3          	add	a7,a0,a2
    1a5c:	06079463          	bnez	a5,1ac4 <memcpy+0x74>
    1a60:	00300793          	li	a5,3
    1a64:	06c7f063          	bgeu	a5,a2,1ac4 <memcpy+0x74>
    1a68:	00357793          	and	a5,a0,3
    1a6c:	00050713          	mv	a4,a0
    1a70:	06079a63          	bnez	a5,1ae4 <memcpy+0x94>
    1a74:	ffc8f613          	and	a2,a7,-4
    1a78:	40e606b3          	sub	a3,a2,a4
    1a7c:	02000793          	li	a5,32
    1a80:	08d7ce63          	blt	a5,a3,1b1c <memcpy+0xcc>
    1a84:	00058693          	mv	a3,a1
    1a88:	00070793          	mv	a5,a4
    1a8c:	02c77863          	bgeu	a4,a2,1abc <memcpy+0x6c>
    1a90:	0006a803          	lw	a6,0(a3)
    1a94:	00478793          	add	a5,a5,4
    1a98:	00468693          	add	a3,a3,4
    1a9c:	ff07ae23          	sw	a6,-4(a5)
    1aa0:	fec7e8e3          	bltu	a5,a2,1a90 <memcpy+0x40>
    1aa4:	fff60793          	add	a5,a2,-1
    1aa8:	40e787b3          	sub	a5,a5,a4
    1aac:	ffc7f793          	and	a5,a5,-4
    1ab0:	00478793          	add	a5,a5,4
    1ab4:	00f70733          	add	a4,a4,a5
    1ab8:	00f585b3          	add	a1,a1,a5
    1abc:	01176863          	bltu	a4,a7,1acc <memcpy+0x7c>
    1ac0:	00008067          	ret
    1ac4:	00050713          	mv	a4,a0
    1ac8:	05157863          	bgeu	a0,a7,1b18 <memcpy+0xc8>
    1acc:	0005c783          	lbu	a5,0(a1)
    1ad0:	00170713          	add	a4,a4,1
    1ad4:	00158593          	add	a1,a1,1
    1ad8:	fef70fa3          	sb	a5,-1(a4)
    1adc:	fee898e3          	bne	a7,a4,1acc <memcpy+0x7c>
    1ae0:	00008067          	ret
    1ae4:	0005c683          	lbu	a3,0(a1)
    1ae8:	00170713          	add	a4,a4,1
    1aec:	00377793          	and	a5,a4,3
    1af0:	fed70fa3          	sb	a3,-1(a4)
    1af4:	00158593          	add	a1,a1,1
    1af8:	f6078ee3          	beqz	a5,1a74 <memcpy+0x24>
    1afc:	0005c683          	lbu	a3,0(a1)
    1b00:	00170713          	add	a4,a4,1
    1b04:	00377793          	and	a5,a4,3
    1b08:	fed70fa3          	sb	a3,-1(a4)
    1b0c:	00158593          	add	a1,a1,1
    1b10:	fc079ae3          	bnez	a5,1ae4 <memcpy+0x94>
    1b14:	f61ff06f          	j	1a74 <memcpy+0x24>
    1b18:	00008067          	ret
    1b1c:	ff010113          	add	sp,sp,-16
    1b20:	00812623          	sw	s0,12(sp)
    1b24:	02000413          	li	s0,32
    1b28:	0005a383          	lw	t2,0(a1)
    1b2c:	0045a283          	lw	t0,4(a1)
    1b30:	0085af83          	lw	t6,8(a1)
    1b34:	00c5af03          	lw	t5,12(a1)
    1b38:	0105ae83          	lw	t4,16(a1)
    1b3c:	0145ae03          	lw	t3,20(a1)
    1b40:	0185a303          	lw	t1,24(a1)
    1b44:	01c5a803          	lw	a6,28(a1)
    1b48:	0205a683          	lw	a3,32(a1)
    1b4c:	02470713          	add	a4,a4,36
    1b50:	40e607b3          	sub	a5,a2,a4
    1b54:	fc772e23          	sw	t2,-36(a4)
    1b58:	fe572023          	sw	t0,-32(a4)
    1b5c:	fff72223          	sw	t6,-28(a4)
    1b60:	ffe72423          	sw	t5,-24(a4)
    1b64:	ffd72623          	sw	t4,-20(a4)
    1b68:	ffc72823          	sw	t3,-16(a4)
    1b6c:	fe672a23          	sw	t1,-12(a4)
    1b70:	ff072c23          	sw	a6,-8(a4)
    1b74:	fed72e23          	sw	a3,-4(a4)
    1b78:	02458593          	add	a1,a1,36
    1b7c:	faf446e3          	blt	s0,a5,1b28 <memcpy+0xd8>
    1b80:	00058693          	mv	a3,a1
    1b84:	00070793          	mv	a5,a4
    1b88:	02c77863          	bgeu	a4,a2,1bb8 <memcpy+0x168>
    1b8c:	0006a803          	lw	a6,0(a3)
    1b90:	00478793          	add	a5,a5,4
    1b94:	00468693          	add	a3,a3,4
    1b98:	ff07ae23          	sw	a6,-4(a5)
    1b9c:	fec7e8e3          	bltu	a5,a2,1b8c <memcpy+0x13c>
    1ba0:	fff60793          	add	a5,a2,-1
    1ba4:	40e787b3          	sub	a5,a5,a4
    1ba8:	ffc7f793          	and	a5,a5,-4
    1bac:	00478793          	add	a5,a5,4
    1bb0:	00f70733          	add	a4,a4,a5
    1bb4:	00f585b3          	add	a1,a1,a5
    1bb8:	01176863          	bltu	a4,a7,1bc8 <memcpy+0x178>
    1bbc:	00c12403          	lw	s0,12(sp)
    1bc0:	01010113          	add	sp,sp,16
    1bc4:	00008067          	ret
    1bc8:	0005c783          	lbu	a5,0(a1)
    1bcc:	00170713          	add	a4,a4,1
    1bd0:	00158593          	add	a1,a1,1
    1bd4:	fef70fa3          	sb	a5,-1(a4)
    1bd8:	fee882e3          	beq	a7,a4,1bbc <memcpy+0x16c>
    1bdc:	0005c783          	lbu	a5,0(a1)
    1be0:	00170713          	add	a4,a4,1
    1be4:	00158593          	add	a1,a1,1
    1be8:	fef70fa3          	sb	a5,-1(a4)
    1bec:	fce89ee3          	bne	a7,a4,1bc8 <memcpy+0x178>
    1bf0:	fcdff06f          	j	1bbc <memcpy+0x16c>
